target datalayout = "e-m:e-p270:32:32-p271:32:32-p272:64:64-i64:64-i128:128-f80:128-n8:16:32:64-S128"
target triple = "x86_64-pc-linux-gnu"

%struct.QEMUSnapshotInfo = type { [128 x i8], [256 x i8], i64, i32, i32, i64, i64 }
%struct.GraphLockableMainloop = type {}
%struct.SnapshotInfo = type { ptr, ptr, i64, i64, i64, i64, i64, i8, i64 }

@.str = private unnamed_addr constant [22 x i8] c"qemu_in_main_thread()\00", align 1
@.str.1 = private unnamed_addr constant [19 x i8] c"../qemu/blockdev.c\00", align 1
@__PRETTY_FUNCTION__.qmp_blockdev_snapshot_delete_internal_sync = private unnamed_addr constant [109 x i8] c"SnapshotInfo *qmp_blockdev_snapshot_delete_internal_sync(const char *, const char *, const char *, Error **)\00", align 1
@__func__.qmp_blockdev_snapshot_delete_internal_sync = private unnamed_addr constant [43 x i8] c"qmp_blockdev_snapshot_delete_internal_sync\00", align 1
@.str.83 = private unnamed_addr constant [28 x i8] c"Name or id must be provided\00", align 1
@.str.84 = private unnamed_addr constant [66 x i8] c"Snapshot with id '%s' and name '%s' does not exist on device '%s'\00", align 1
@.str.85 = private unnamed_addr constant [5 x i8] c"null\00", align 1

; Function Attrs: inlinehint nounwind sspstrong uwtable
define internal void @graph_lockable_auto_unlock_mainloop(ptr noundef %0) #5 {
  %2 = alloca ptr, align 8
  store ptr %0, ptr %2, align 8
  call void @bdrv_graph_rdunlock_main_loop()
  ret void
}

; Function Attrs: inlinehint nounwind sspstrong uwtable
define internal void @glib_autoptr_clear_GraphLockableMainloop(ptr noundef %0) #5 {
  %2 = alloca ptr, align 8
  store ptr %0, ptr %2, align 8
  %3 = load ptr, ptr %2, align 8
  %4 = icmp ne ptr %3, null
  br i1 %4, label %5, label %7

5:                                                ; preds = %1
  %6 = load ptr, ptr %2, align 8
  call void @graph_lockable_auto_unlock_mainloop(ptr noundef %6)
  br label %7

7:                                                ; preds = %5, %1
  ret void
}

; Function Attrs: inlinehint nounwind sspstrong uwtable
define internal void @glib_autoptr_cleanup_GraphLockableMainloop(ptr noundef %0) #5 {
  %2 = alloca ptr, align 8
  store ptr %0, ptr %2, align 8
  %3 = load ptr, ptr %2, align 8
  %4 = load ptr, ptr %3, align 8
  call void @glib_autoptr_clear_GraphLockableMainloop(ptr noundef %4)
  ret void
}

; Function Attrs: inlinehint nounwind sspstrong uwtable
define internal ptr @graph_lockable_auto_lock_mainloop(ptr noundef %0) #5 {
  %2 = alloca ptr, align 8
  store ptr %0, ptr %2, align 8
  call void @bdrv_graph_rdlock_main_loop()
  %3 = load ptr, ptr %2, align 8
  ret ptr %3
}

; Function Attrs: nounwind sspstrong uwtable
define dso_local ptr @qmp_blockdev_snapshot_delete_internal_sync(ptr noundef %0, ptr noundef %1, ptr noundef %2, ptr noundef %3) #0 {
  %5 = alloca ptr, align 8
  %6 = alloca ptr, align 8
  %7 = alloca ptr, align 8
  %8 = alloca ptr, align 8
  %9 = alloca ptr, align 8
  %10 = alloca ptr, align 8
  %11 = alloca %struct.QEMUSnapshotInfo, align 8
  %12 = alloca ptr, align 8
  %13 = alloca ptr, align 8
  %14 = alloca i32, align 4
  %15 = alloca ptr, align 8
  %16 = alloca %struct.GraphLockableMainloop, align 1
  %17 = alloca i32, align 4
  %18 = alloca i64, align 8
  %19 = alloca i64, align 8
  %20 = alloca ptr, align 8
  %21 = alloca ptr, align 8
  store ptr %0, ptr %6, align 8
  store ptr %1, ptr %7, align 8
  store ptr %2, ptr %8, align 8
  store ptr %3, ptr %9, align 8
  call void @llvm.lifetime.start.p0(i64 8, ptr %10) #16
  store ptr null, ptr %10, align 8, !annotation !4
  call void @llvm.lifetime.start.p0(i64 416, ptr %11) #16
  call void @llvm.memset.p0.i64(ptr align 8 %11, i8 0, i64 416, i1 false), !annotation !4
  call void @llvm.lifetime.start.p0(i64 8, ptr %12) #16
  store ptr null, ptr %12, align 8
  call void @llvm.lifetime.start.p0(i64 8, ptr %13) #16
  store ptr null, ptr %13, align 8
  call void @llvm.lifetime.start.p0(i64 4, ptr %14) #16
  store i32 0, ptr %14, align 4, !annotation !4
  br label %22

22:                                               ; preds = %4
  %23 = call zeroext i1 @qemu_in_main_thread()
  br i1 %23, label %24, label %25

24:                                               ; preds = %22
  br label %26

25:                                               ; preds = %22
  call void @__assert_fail(ptr noundef @.str, ptr noundef @.str.1, i32 noundef 1134, ptr noundef @__PRETTY_FUNCTION__.qmp_blockdev_snapshot_delete_internal_sync) #15
  unreachable

26:                                               ; preds = %24
  br label %27

27:                                               ; preds = %26
  br label %28

28:                                               ; preds = %27
  call void @llvm.lifetime.start.p0(i64 8, ptr %15) #16
  %29 = call ptr @graph_lockable_auto_lock_mainloop(ptr noundef %16)
  store ptr %29, ptr %15, align 8
  %30 = load ptr, ptr %6, align 8
  %31 = load ptr, ptr %9, align 8
  %32 = call ptr @qmp_get_root_bs(ptr noundef %30, ptr noundef %31)
  store ptr %32, ptr %10, align 8
  %33 = load ptr, ptr %10, align 8
  %34 = icmp ne ptr %33, null
  br i1 %34, label %36, label %35

35:                                               ; preds = %28
  store ptr null, ptr %5, align 8
  store i32 1, ptr %17, align 4
  br label %166

36:                                               ; preds = %28
  %37 = load ptr, ptr %7, align 8
  %38 = icmp ne ptr %37, null
  br i1 %38, label %44, label %39

39:                                               ; preds = %36
  %40 = load ptr, ptr %8, align 8
  %41 = icmp ne ptr %40, null
  br i1 %41, label %44, label %42

42:                                               ; preds = %39
  %43 = load ptr, ptr %9, align 8
  call void (ptr, ptr, i32, ptr, ptr, ...) @error_setg_internal(ptr noundef %43, ptr noundef @.str.1, i32 noundef 1143, ptr noundef @__func__.qmp_blockdev_snapshot_delete_internal_sync, ptr noundef @.str.83)
  store ptr null, ptr %5, align 8
  store i32 1, ptr %17, align 4
  br label %166

44:                                               ; preds = %39, %36
  %45 = load ptr, ptr %10, align 8
  %46 = load ptr, ptr %9, align 8
  %47 = call zeroext i1 @bdrv_op_is_blocked(ptr noundef %45, i32 noundef 9, ptr noundef %46)
  br i1 %47, label %48, label %49

48:                                               ; preds = %44
  store ptr null, ptr %5, align 8
  store i32 1, ptr %17, align 4
  br label %166

49:                                               ; preds = %44
  %50 = load ptr, ptr %10, align 8
  %51 = load ptr, ptr %7, align 8
  %52 = load ptr, ptr %8, align 8
  %53 = call zeroext i1 @bdrv_snapshot_find_by_id_and_name(ptr noundef %50, ptr noundef %51, ptr noundef %52, ptr noundef %11, ptr noundef %12)
  %54 = zext i1 %53 to i32
  store i32 %54, ptr %14, align 4
  %55 = load ptr, ptr %12, align 8
  %56 = icmp ne ptr %55, null
  br i1 %56, label %57, label %60

57:                                               ; preds = %49
  %58 = load ptr, ptr %9, align 8
  %59 = load ptr, ptr %12, align 8
  call void @error_propagate(ptr noundef %58, ptr noundef %59)
  store ptr null, ptr %5, align 8
  store i32 1, ptr %17, align 4
  br label %166

60:                                               ; preds = %49
  %61 = load i32, ptr %14, align 4
  %62 = icmp ne i32 %61, 0
  br i1 %62, label %80, label %63

63:                                               ; preds = %60
  %64 = load ptr, ptr %9, align 8
  %65 = load ptr, ptr %7, align 8
  %66 = icmp ne ptr %65, null
  br i1 %66, label %67, label %69

67:                                               ; preds = %63
  %68 = load ptr, ptr %7, align 8
  br label %70

69:                                               ; preds = %63
  br label %70

70:                                               ; preds = %69, %67
  %71 = phi ptr [ %68, %67 ], [ @.str.85, %69 ]
  %72 = load ptr, ptr %8, align 8
  %73 = icmp ne ptr %72, null
  br i1 %73, label %74, label %76

74:                                               ; preds = %70
  %75 = load ptr, ptr %8, align 8
  br label %77

76:                                               ; preds = %70
  br label %77

77:                                               ; preds = %76, %74
  %78 = phi ptr [ %75, %74 ], [ @.str.85, %76 ]
  %79 = load ptr, ptr %6, align 8
  call void (ptr, ptr, i32, ptr, ptr, ...) @error_setg_internal(ptr noundef %64, ptr noundef @.str.1, i32 noundef 1160, ptr noundef @__func__.qmp_blockdev_snapshot_delete_internal_sync, ptr noundef @.str.84, ptr noundef %71, ptr noundef %78, ptr noundef %79)
  store ptr null, ptr %5, align 8
  store i32 1, ptr %17, align 4
  br label %166

80:                                               ; preds = %60
  %81 = load ptr, ptr %10, align 8
  %82 = load ptr, ptr %7, align 8
  %83 = load ptr, ptr %8, align 8
  %84 = call i32 @bdrv_snapshot_delete(ptr noundef %81, ptr noundef %82, ptr noundef %83, ptr noundef %12)
  %85 = load ptr, ptr %12, align 8
  %86 = icmp ne ptr %85, null
  br i1 %86, label %87, label %90

87:                                               ; preds = %80
  %88 = load ptr, ptr %9, align 8
  %89 = load ptr, ptr %12, align 8
  call void @error_propagate(ptr noundef %88, ptr noundef %89)
  store ptr null, ptr %5, align 8
  store i32 1, ptr %17, align 4
  br label %166

90:                                               ; preds = %80
  call void @llvm.lifetime.start.p0(i64 8, ptr %18) #16
  store i64 1, ptr %18, align 8
  call void @llvm.lifetime.start.p0(i64 8, ptr %19) #16
  store i64 72, ptr %19, align 8
  call void @llvm.lifetime.start.p0(i64 8, ptr %20) #16
  store ptr null, ptr %20, align 8, !annotation !4
  %91 = load i64, ptr %19, align 8
  %92 = icmp eq i64 %91, 1
  br i1 %92, label %93, label %96

93:                                               ; preds = %90
  %94 = load i64, ptr %18, align 8
  %95 = call noalias ptr @g_malloc0(i64 noundef %94) #19
  store ptr %95, ptr %20, align 8
  br label %117

96:                                               ; preds = %90
  %97 = load i64, ptr %18, align 8
  %98 = call i1 @llvm.is.constant.i64(i64 %97)
  br i1 %98, label %99, label %112

99:                                               ; preds = %96
  %100 = load i64, ptr %19, align 8
  %101 = icmp eq i64 %100, 0
  br i1 %101, label %107, label %102

102:                                              ; preds = %99
  %103 = load i64, ptr %18, align 8
  %104 = load i64, ptr %19, align 8
  %105 = udiv i64 -1, %104
  %106 = icmp ule i64 %103, %105
  br i1 %106, label %107, label %112

107:                                              ; preds = %102, %99
  %108 = load i64, ptr %18, align 8
  %109 = load i64, ptr %19, align 8
  %110 = mul i64 %108, %109
  %111 = call noalias ptr @g_malloc0(i64 noundef %110) #19
  store ptr %111, ptr %20, align 8
  br label %116

112:                                              ; preds = %102, %96
  %113 = load i64, ptr %18, align 8
  %114 = load i64, ptr %19, align 8
  %115 = call noalias ptr @g_malloc0_n(i64 noundef %113, i64 noundef %114) #20
  store ptr %115, ptr %20, align 8
  br label %116

116:                                              ; preds = %112, %107
  br label %117

117:                                              ; preds = %116, %93
  %118 = load ptr, ptr %20, align 8
  store ptr %118, ptr %21, align 8
  call void @llvm.lifetime.end.p0(i64 8, ptr %20) #16
  call void @llvm.lifetime.end.p0(i64 8, ptr %19) #16
  call void @llvm.lifetime.end.p0(i64 8, ptr %18) #16
  %119 = load ptr, ptr %21, align 8
  store ptr %119, ptr %13, align 8
  %120 = getelementptr inbounds nuw %struct.QEMUSnapshotInfo, ptr %11, i32 0, i32 0
  %121 = getelementptr inbounds [128 x i8], ptr %120, i64 0, i64 0
  %122 = call noalias ptr @g_strdup(ptr noundef %121)
  %123 = load ptr, ptr %13, align 8
  %124 = getelementptr inbounds nuw %struct.SnapshotInfo, ptr %123, i32 0, i32 0
  store ptr %122, ptr %124, align 8
  %125 = getelementptr inbounds nuw %struct.QEMUSnapshotInfo, ptr %11, i32 0, i32 1
  %126 = getelementptr inbounds [256 x i8], ptr %125, i64 0, i64 0
  %127 = call noalias ptr @g_strdup(ptr noundef %126)
  %128 = load ptr, ptr %13, align 8
  %129 = getelementptr inbounds nuw %struct.SnapshotInfo, ptr %128, i32 0, i32 1
  store ptr %127, ptr %129, align 8
  %130 = getelementptr inbounds nuw %struct.QEMUSnapshotInfo, ptr %11, i32 0, i32 4
  %131 = load i32, ptr %130, align 4
  %132 = zext i32 %131 to i64
  %133 = load ptr, ptr %13, align 8
  %134 = getelementptr inbounds nuw %struct.SnapshotInfo, ptr %133, i32 0, i32 4
  store i64 %132, ptr %134, align 8
  %135 = getelementptr inbounds nuw %struct.QEMUSnapshotInfo, ptr %11, i32 0, i32 3
  %136 = load i32, ptr %135, align 8
  %137 = zext i32 %136 to i64
  %138 = load ptr, ptr %13, align 8
  %139 = getelementptr inbounds nuw %struct.SnapshotInfo, ptr %138, i32 0, i32 3
  store i64 %137, ptr %139, align 8
  %140 = getelementptr inbounds nuw %struct.QEMUSnapshotInfo, ptr %11, i32 0, i32 2
  %141 = load i64, ptr %140, align 8
  %142 = load ptr, ptr %13, align 8
  %143 = getelementptr inbounds nuw %struct.SnapshotInfo, ptr %142, i32 0, i32 2
  store i64 %141, ptr %143, align 8
  %144 = getelementptr inbounds nuw %struct.QEMUSnapshotInfo, ptr %11, i32 0, i32 5
  %145 = load i64, ptr %144, align 8
  %146 = urem i64 %145, 1000000000
  %147 = load ptr, ptr %13, align 8
  %148 = getelementptr inbounds nuw %struct.SnapshotInfo, ptr %147, i32 0, i32 6
  store i64 %146, ptr %148, align 8
  %149 = getelementptr inbounds nuw %struct.QEMUSnapshotInfo, ptr %11, i32 0, i32 5
  %150 = load i64, ptr %149, align 8
  %151 = udiv i64 %150, 1000000000
  %152 = load ptr, ptr %13, align 8
  %153 = getelementptr inbounds nuw %struct.SnapshotInfo, ptr %152, i32 0, i32 5
  store i64 %151, ptr %153, align 8
  %154 = getelementptr inbounds nuw %struct.QEMUSnapshotInfo, ptr %11, i32 0, i32 6
  %155 = load i64, ptr %154, align 8
  %156 = icmp ne i64 %155, -1
  br i1 %156, label %157, label %164

157:                                              ; preds = %117
  %158 = getelementptr inbounds nuw %struct.QEMUSnapshotInfo, ptr %11, i32 0, i32 6
  %159 = load i64, ptr %158, align 8
  %160 = load ptr, ptr %13, align 8
  %161 = getelementptr inbounds nuw %struct.SnapshotInfo, ptr %160, i32 0, i32 8
  store i64 %159, ptr %161, align 8
  %162 = load ptr, ptr %13, align 8
  %163 = getelementptr inbounds nuw %struct.SnapshotInfo, ptr %162, i32 0, i32 7
  store i8 1, ptr %163, align 8
  br label %164

164:                                              ; preds = %157, %117
  %165 = load ptr, ptr %13, align 8
  store ptr %165, ptr %5, align 8
  store i32 1, ptr %17, align 4
  br label %166

166:                                              ; preds = %164, %87, %77, %57, %48, %42, %35
  call void @glib_autoptr_cleanup_GraphLockableMainloop(ptr noundef %15)
  call void @llvm.lifetime.end.p0(i64 8, ptr %15) #16
  call void @llvm.lifetime.end.p0(i64 4, ptr %14) #16
  call void @llvm.lifetime.end.p0(i64 8, ptr %13) #16
  call void @llvm.lifetime.end.p0(i64 8, ptr %12) #16
  call void @llvm.lifetime.end.p0(i64 416, ptr %11) #16
  call void @llvm.lifetime.end.p0(i64 8, ptr %10) #16
  %167 = load ptr, ptr %5, align 8
  ret ptr %167
}