; Function Attrs: nounwind sspstrong uwtable
define dso_local noalias noundef ptr @qmp_blockdev_snapshot_delete_internal_sync(ptr noundef %0, ptr noundef %1, ptr noundef %2, ptr noundef %3) local_unnamed_addr #0 {
  %5 = alloca %struct.QEMUSnapshotInfo, align 8
  %6 = alloca ptr, align 8
  call void @llvm.lifetime.start.p0(i64 416, ptr nonnull %5) #14
  call void @llvm.lifetime.start.p0(i64 8, ptr nonnull %6) #14
  store ptr null, ptr %6, align 8
  %7 = tail call zeroext i1 @qemu_in_main_thread() #14
  br i1 %7, label %9, label %8

8:                                                ; preds = %4
  tail call void @__assert_fail(ptr noundef nonnull @.str, ptr noundef nonnull @.str.1, i32 noundef 1134, ptr noundef nonnull @__PRETTY_FUNCTION__.qmp_blockdev_snapshot_delete_internal_sync) #15
  unreachable

9:                                                ; preds = %4
  call void @llvm.memset.p0.i64(ptr noundef nonnull align 8 dereferenceable(416) %5, i8 0, i64 416, i1 false), !annotation !10
  tail call void @bdrv_graph_rdlock_main_loop() #14
  %10 = tail call fastcc ptr @qmp_get_root_bs(ptr noundef %0, ptr noundef %3)
  %.not = icmp eq ptr %10, null
  br i1 %.not, label %glib_autoptr_cleanup_GraphLockableMainloop.exit, label %11

11:                                               ; preds = %9
  %12 = icmp ne ptr %1, null
  %13 = icmp ne ptr %2, null
  %or.cond = or i1 %12, %13
  br i1 %or.cond, label %15, label %14

14:                                               ; preds = %11
  tail call void (ptr, ptr, i32, ptr, ptr, ...) @error_setg_internal(ptr noundef %3, ptr noundef nonnull @.str.1, i32 noundef 1143, ptr noundef nonnull @__func__.qmp_blockdev_snapshot_delete_internal_sync, ptr noundef nonnull @.str.83) #14
  br label %glib_autoptr_cleanup_GraphLockableMainloop.exit

15:                                               ; preds = %11
  %16 = tail call zeroext i1 @bdrv_op_is_blocked(ptr noundef nonnull %10, i32 noundef 9, ptr noundef %3) #14
  br i1 %16, label %glib_autoptr_cleanup_GraphLockableMainloop.exit, label %17

17:                                               ; preds = %15
  %18 = call zeroext i1 @bdrv_snapshot_find_by_id_and_name(ptr noundef nonnull %10, ptr noundef %1, ptr noundef %2, ptr noundef nonnull %5, ptr noundef nonnull %6) #14
  %19 = load ptr, ptr %6, align 8
  %.not51 = icmp eq ptr %19, null
  br i1 %.not51, label %21, label %20

20:                                               ; preds = %17
  call void @error_propagate(ptr noundef %3, ptr noundef nonnull %19) #14
  br label %glib_autoptr_cleanup_GraphLockableMainloop.exit

21:                                               ; preds = %17
  br i1 %18, label %25, label %22

22:                                               ; preds = %21
  %23 = select i1 %12, ptr %1, ptr @.str.85
  %24 = select i1 %13, ptr %2, ptr @.str.85
  call void (ptr, ptr, i32, ptr, ptr, ...) @error_setg_internal(ptr noundef %3, ptr noundef nonnull @.str.1, i32 noundef 1160, ptr noundef nonnull @__func__.qmp_blockdev_snapshot_delete_internal_sync, ptr noundef nonnull @.str.84, ptr noundef nonnull %23, ptr noundef nonnull %24, ptr noundef %0) #14
  br label %glib_autoptr_cleanup_GraphLockableMainloop.exit

25:                                               ; preds = %21
  %26 = call i32 @bdrv_snapshot_delete(ptr noundef nonnull %10, ptr noundef %1, ptr noundef %2, ptr noundef nonnull %6) #14
  %27 = load ptr, ptr %6, align 8
  %.not52 = icmp eq ptr %27, null
  br i1 %.not52, label %29, label %28

28:                                               ; preds = %25
  call void @error_propagate(ptr noundef %3, ptr noundef nonnull %27) #14
  br label %glib_autoptr_cleanup_GraphLockableMainloop.exit

29:                                               ; preds = %25
  %30 = call noalias dereferenceable_or_null(72) ptr @g_malloc0(i64 noundef 72) #18
  %31 = call noalias ptr @g_strdup(ptr noundef nonnull %5) #14
  store ptr %31, ptr %30, align 8
  %32 = getelementptr inbounds nuw i8, ptr %5, i64 128
  %33 = call noalias ptr @g_strdup(ptr noundef nonnull %32) #14
  %34 = getelementptr inbounds nuw i8, ptr %30, i64 8
  store ptr %33, ptr %34, align 8
  %35 = getelementptr inbounds nuw i8, ptr %5, i64 396
  %36 = load i32, ptr %35, align 4
  %37 = zext i32 %36 to i64
  %38 = getelementptr inbounds nuw i8, ptr %30, i64 32
  store i64 %37, ptr %38, align 8
  %39 = getelementptr inbounds nuw i8, ptr %5, i64 392
  %40 = load i32, ptr %39, align 8
  %41 = zext i32 %40 to i64
  %42 = getelementptr inbounds nuw i8, ptr %30, i64 24
  store i64 %41, ptr %42, align 8
  %43 = getelementptr inbounds nuw i8, ptr %5, i64 384
  %44 = load i64, ptr %43, align 8
  %45 = getelementptr inbounds nuw i8, ptr %30, i64 16
  store i64 %44, ptr %45, align 8
  %46 = getelementptr inbounds nuw i8, ptr %5, i64 400
  %47 = load i64, ptr %46, align 8
  %48 = urem i64 %47, 1000000000
  %49 = getelementptr inbounds nuw i8, ptr %30, i64 48
  store i64 %48, ptr %49, align 8
  %50 = udiv i64 %47, 1000000000
  %51 = getelementptr inbounds nuw i8, ptr %30, i64 40
  store i64 %50, ptr %51, align 8
  %52 = getelementptr inbounds nuw i8, ptr %5, i64 408
  %53 = load i64, ptr %52, align 8
  %.not53 = icmp eq i64 %53, -1
  br i1 %.not53, label %glib_autoptr_cleanup_GraphLockableMainloop.exit, label %54

54:                                               ; preds = %29
  %55 = getelementptr inbounds nuw i8, ptr %30, i64 64
  store i64 %53, ptr %55, align 8
  %56 = getelementptr inbounds nuw i8, ptr %30, i64 56
  store i8 1, ptr %56, align 8
  br label %glib_autoptr_cleanup_GraphLockableMainloop.exit

glib_autoptr_cleanup_GraphLockableMainloop.exit:  ; preds = %29, %54, %15, %9, %28, %22, %20, %14
  %.0 = phi ptr [ null, %20 ], [ null, %28 ], [ null, %22 ], [ null, %14 ], [ null, %9 ], [ null, %15 ], [ %30, %54 ], [ %30, %29 ]
  call void @bdrv_graph_rdunlock_main_loop() #14
  call void @llvm.lifetime.end.p0(i64 8, ptr nonnull %6) #14
  call void @llvm.lifetime.end.p0(i64 416, ptr nonnull %5) #14
  ret ptr %.0
}